target datalayout = "e-m:e-p270:32:32-p271:32:32-p272:64:64-i64:64-i128:128-f80:128-n8:16:32:64-S128"
target triple = "x86_64-pc-linux-gnu"

%class.Metadata = type { ptr }
%class.OopHandle = type { ptr }
%class.AccessFlags = type { i32 }
%class.Klass.base = type <{ %class.Metadata, i32, i32, i32, i32, ptr, ptr, ptr, [8 x ptr], %class.OopHandle, ptr, ptr, ptr, ptr, ptr, i32, %class.AccessFlags, i64, i64, i8, i8, i16, i16, [2 x i8], i32 }>
%class.InstanceKlass = type { %class.Klass.base, ptr, ptr, ptr, ptr, ptr, ptr, ptr, ptr, ptr, ptr, i32, i32, i32, i32, i16, i16, i16, i16, i8, i8, i8, i8, %class.InstanceKlassFlags, ptr, ptr, ptr, ptr, ptr, i64, ptr, ptr, ptr, ptr, ptr, ptr, ptr, ptr, ptr, ptr, ptr, ptr, ptr }
%class.InstanceKlassFlags = type <{ i16, i8, i8 }>
%class.KlassDepChange = type { %class.DepChange, ptr }
%class.DepChange = type { ptr }
%"class.DepChange::ContextStream" = type { ptr, i32, ptr, ptr, i32, i32 }
%class.Array = type { i32, [1 x ptr] }
%class.anon.77 = type { i8 }

@g_assert_poison = external global ptr, align 8
@.str = private unnamed_addr constant [40 x i8] c"src/hotspot/share/code/dependencies.cpp\00", align 1
@.str.50 = private unnamed_addr constant [16 x i8] c"  dependee = %s\00", align 1
@.str.51 = private unnamed_addr constant [39 x i8] c"  context supers = %d, interfaces = %d\00", align 1

; Function Attrs: mustprogress nounwind uwtable
define linkonce_odr hidden noundef i64 @_ZZN5ArrayIP13InstanceKlassE20base_offset_in_bytesEvENKUlvE_clEv(ptr noundef nonnull align 1 dereferenceable(1) %0) #1 comdat align 2 {
  %2 = alloca ptr, align 8
  %3 = alloca [16 x i8], align 16
  %4 = alloca ptr, align 8
  %5 = alloca ptr, align 8
  store ptr %0, ptr %2, align 8
  %6 = getelementptr inbounds [16 x i8], ptr %3, i64 0, i64 0
  store ptr %6, ptr %4, align 8
  %7 = load ptr, ptr %4, align 8
  %8 = getelementptr inbounds %class.Array, ptr %7, i32 0, i32 1
  store ptr %8, ptr %5, align 8
  %9 = load ptr, ptr %5, align 8
  %10 = getelementptr inbounds [16 x i8], ptr %3, i64 0, i64 0
  %11 = ptrtoint ptr %9 to i64
  %12 = ptrtoint ptr %10 to i64
  %13 = sub i64 %11, %12
  ret i64 %13
}

; Function Attrs: mustprogress nounwind uwtable
define linkonce_odr hidden noundef i32 @_ZN5ArrayIP13InstanceKlassE20base_offset_in_bytesEv() #1 comdat align 2 {
  %1 = alloca %class.anon.77, align 1
  %2 = call noundef i64 @_ZZN5ArrayIP13InstanceKlassE20base_offset_in_bytesEvENKUlvE_clEv(ptr noundef nonnull align 1 dereferenceable(1) %1)
  %3 = trunc i64 %2 to i32
  ret i32 %3
}

; Function Attrs: mustprogress nounwind uwtable
define linkonce_odr hidden noundef ptr @_ZNK5ArrayIP13InstanceKlassE4dataEv(ptr noundef nonnull align 8 dereferenceable(16) %0) #1 comdat align 2 {
  %2 = alloca ptr, align 8
  store ptr %0, ptr %2, align 8
  %3 = load ptr, ptr %2, align 8
  %4 = call noundef i32 @_ZN5ArrayIP13InstanceKlassE20base_offset_in_bytesEv()
  %5 = sext i32 %4 to i64
  %6 = getelementptr inbounds i8, ptr %3, i64 %5
  ret ptr %6
}

; Function Attrs: mustprogress nounwind uwtable
define linkonce_odr hidden noundef ptr @_ZN14KlassDepChange4typeEv(ptr noundef nonnull align 8 dereferenceable(16) %0) #1 comdat align 2 {
  %2 = alloca ptr, align 8
  store ptr %0, ptr %2, align 8
  %3 = load ptr, ptr %2, align 8
  %4 = getelementptr inbounds %class.KlassDepChange, ptr %3, i32 0, i32 1
  %5 = load ptr, ptr %4, align 8
  ret ptr %5
}

; Function Attrs: mustprogress nounwind uwtable
define linkonce_odr hidden noundef ptr @_ZN9DepChange15as_klass_changeEv(ptr noundef nonnull align 8 dereferenceable(8) %0) #1 comdat align 2 {
  %2 = alloca ptr, align 8
  store ptr %0, ptr %2, align 8
  %3 = load ptr, ptr %2, align 8
  ret ptr %3
}

; Function Attrs: mustprogress nounwind uwtable
define linkonce_odr hidden noundef ptr @_ZNK5ArrayIP13InstanceKlassE2atEi(ptr noundef nonnull align 8 dereferenceable(16) %0, i32 noundef %1) #1 comdat align 2 {
  %3 = alloca ptr, align 8
  %4 = alloca i32, align 4
  store ptr %0, ptr %3, align 8
  store i32 %1, ptr %4, align 4
  %5 = load ptr, ptr %3, align 8
  %6 = call noundef ptr @_ZNK5ArrayIP13InstanceKlassE4dataEv(ptr noundef nonnull align 8 dereferenceable(16) %5)
  %7 = load i32, ptr %4, align 4
  %8 = sext i32 %7 to i64
  %9 = getelementptr inbounds ptr, ptr %6, i64 %8
  %10 = load ptr, ptr %9, align 8
  ret ptr %10
}

; Function Attrs: mustprogress nounwind uwtable
define linkonce_odr hidden noundef i32 @_ZNK5ArrayIP13InstanceKlassE6lengthEv(ptr noundef nonnull align 8 dereferenceable(16) %0) #1 comdat align 2 {
  %2 = alloca ptr, align 8
  store ptr %0, ptr %2, align 8
  %3 = load ptr, ptr %2, align 8
  %4 = getelementptr inbounds %class.Array, ptr %3, i32 0, i32 0
  %5 = load i32, ptr %4, align 8
  ret i32 %5
}

; Function Attrs: mustprogress nounwind uwtable
define linkonce_odr hidden noundef ptr @_ZNK13InstanceKlass21transitive_interfacesEv(ptr noundef nonnull align 8 dereferenceable(464) %0) #1 comdat align 2 {
  %2 = alloca ptr, align 8
  store ptr %0, ptr %2, align 8
  %3 = load ptr, ptr %2, align 8
  %4 = getelementptr inbounds %class.InstanceKlass, ptr %3, i32 0, i32 38
  %5 = load ptr, ptr %4, align 8
  ret ptr %5
}

; Function Attrs: mustprogress nounwind uwtable
define hidden void @_ZN9DepChange13ContextStream5startEv(ptr noundef nonnull align 8 dereferenceable(40) %0) #1 align 2 {
  %2 = alloca ptr, align 8
  %3 = alloca ptr, align 8
  store ptr %0, ptr %2, align 8
  %4 = load ptr, ptr %2, align 8
  %5 = getelementptr inbounds %"class.DepChange::ContextStream", ptr %4, i32 0, i32 0
  %6 = load ptr, ptr %5, align 8
  %7 = load ptr, ptr %6, align 8
  %8 = getelementptr inbounds ptr, ptr %7, i64 0
  %9 = load ptr, ptr %8, align 8
  %10 = call noundef zeroext i1 %9(ptr noundef nonnull align 8 dereferenceable(8) %6)
  br i1 %10, label %11, label %16

11:                                               ; preds = %1
  %12 = getelementptr inbounds %"class.DepChange::ContextStream", ptr %4, i32 0, i32 0
  %13 = load ptr, ptr %12, align 8
  %14 = call noundef ptr @_ZN9DepChange15as_klass_changeEv(ptr noundef nonnull align 8 dereferenceable(8) %13)
  %15 = call noundef ptr @_ZN14KlassDepChange4typeEv(ptr noundef nonnull align 8 dereferenceable(16) %14)
  br label %17

16:                                               ; preds = %1
  br label %17

17:                                               ; preds = %16, %11
  %18 = phi ptr [ %15, %11 ], [ null, %16 ]
  store ptr %18, ptr %3, align 8
  %19 = load ptr, ptr %3, align 8
  %20 = icmp eq ptr %19, null
  %21 = select i1 %20, i32 0, i32 4
  %22 = getelementptr inbounds %"class.DepChange::ContextStream", ptr %4, i32 0, i32 1
  store i32 %21, ptr %22, align 8
  %23 = load ptr, ptr %3, align 8
  %24 = getelementptr inbounds %"class.DepChange::ContextStream", ptr %4, i32 0, i32 2
  store ptr %23, ptr %24, align 8
  %25 = getelementptr inbounds %"class.DepChange::ContextStream", ptr %4, i32 0, i32 3
  store ptr null, ptr %25, align 8
  %26 = getelementptr inbounds %"class.DepChange::ContextStream", ptr %4, i32 0, i32 4
  store i32 0, ptr %26, align 8
  %27 = getelementptr inbounds %"class.DepChange::ContextStream", ptr %4, i32 0, i32 5
  store i32 0, ptr %27, align 4
  ret void
}

; Function Attrs: mustprogress nounwind uwtable
define linkonce_odr hidden noundef i32 @_ZN9DepChange13ContextStream11change_typeEv(ptr noundef nonnull align 8 dereferenceable(40) %0) #1 comdat align 2 {
  %2 = alloca ptr, align 8
  store ptr %0, ptr %2, align 8
  %3 = load ptr, ptr %2, align 8
  %4 = getelementptr inbounds %"class.DepChange::ContextStream", ptr %3, i32 0, i32 1
  %5 = load i32, ptr %4, align 8
  ret i32 %5
}

; Function Attrs: mustprogress nounwind uwtable
define linkonce_odr hidden noundef ptr @_ZN9DepChange13ContextStream5klassEv(ptr noundef nonnull align 8 dereferenceable(40) %0) #1 comdat align 2 {
  %2 = alloca ptr, align 8
  store ptr %0, ptr %2, align 8
  %3 = load ptr, ptr %2, align 8
  %4 = getelementptr inbounds %"class.DepChange::ContextStream", ptr %3, i32 0, i32 2
  %5 = load ptr, ptr %4, align 8
  ret ptr %5
}

; Function Attrs: mustprogress nounwind uwtable
define hidden noundef zeroext i1 @_ZN9DepChange13ContextStream4nextEv(ptr noundef nonnull align 8 dereferenceable(40) %0) #1 align 2 {
  %2 = alloca i1, align 1
  %3 = alloca ptr, align 8
  store ptr %0, ptr %3, align 8
  %4 = load ptr, ptr %3, align 8
  %5 = getelementptr inbounds %"class.DepChange::ContextStream", ptr %4, i32 0, i32 1
  %6 = load i32, ptr %5, align 8
  switch i32 %6, label %58 [
    i32 4, label %7
    i32 1, label %14
    i32 2, label %16
    i32 3, label %41
    i32 0, label %57
  ]

7:                                                ; preds = %1
  %8 = getelementptr inbounds %"class.DepChange::ContextStream", ptr %4, i32 0, i32 2
  %9 = load ptr, ptr %8, align 8
  %10 = call noundef ptr @_ZNK13InstanceKlass21transitive_interfacesEv(ptr noundef nonnull align 8 dereferenceable(464) %9)
  %11 = getelementptr inbounds %"class.DepChange::ContextStream", ptr %4, i32 0, i32 3
  store ptr %10, ptr %11, align 8
  %12 = getelementptr inbounds %"class.DepChange::ContextStream", ptr %4, i32 0, i32 4
  store i32 0, ptr %12, align 8
  %13 = getelementptr inbounds %"class.DepChange::ContextStream", ptr %4, i32 0, i32 1
  store i32 1, ptr %13, align 8
  store i1 true, ptr %2, align 1
  br label %63

14:                                               ; preds = %1
  %15 = getelementptr inbounds %"class.DepChange::ContextStream", ptr %4, i32 0, i32 1
  store i32 2, ptr %15, align 8
  br label %16

16:                                               ; preds = %14, %1
  %17 = getelementptr inbounds %"class.DepChange::ContextStream", ptr %4, i32 0, i32 2
  %18 = load ptr, ptr %17, align 8
  %19 = load ptr, ptr %18, align 8
  %20 = getelementptr inbounds ptr, ptr %19, i64 15
  %21 = load ptr, ptr %20, align 8
  %22 = call noundef ptr %21(ptr noundef nonnull align 8 dereferenceable(464) %18)
  %23 = getelementptr inbounds %"class.DepChange::ContextStream", ptr %4, i32 0, i32 2
  store ptr %22, ptr %23, align 8
  %24 = getelementptr inbounds %"class.DepChange::ContextStream", ptr %4, i32 0, i32 2
  %25 = load ptr, ptr %24, align 8
  %26 = icmp ne ptr %25, null
  br i1 %26, label %27, label %28

27:                                               ; preds = %16
  store i1 true, ptr %2, align 1
  br label %63

28:                                               ; preds = %16
  %29 = getelementptr inbounds %"class.DepChange::ContextStream", ptr %4, i32 0, i32 3
  %30 = load ptr, ptr %29, align 8
  %31 = icmp eq ptr %30, null
  br i1 %31, label %32, label %33

32:                                               ; preds = %28
  br label %37

33:                                               ; preds = %28
  %34 = getelementptr inbounds %"class.DepChange::ContextStream", ptr %4, i32 0, i32 3
  %35 = load ptr, ptr %34, align 8
  %36 = call noundef i32 @_ZNK5ArrayIP13InstanceKlassE6lengthEv(ptr noundef nonnull align 8 dereferenceable(16) %35)
  br label %37

37:                                               ; preds = %33, %32
  %38 = phi i32 [ 0, %32 ], [ %36, %33 ]
  %39 = getelementptr inbounds %"class.DepChange::ContextStream", ptr %4, i32 0, i32 5
  store i32 %38, ptr %39, align 4
  %40 = getelementptr inbounds %"class.DepChange::ContextStream", ptr %4, i32 0, i32 1
  store i32 3, ptr %40, align 8
  br label %41

41:                                               ; preds = %37, %1
  %42 = getelementptr inbounds %"class.DepChange::ContextStream", ptr %4, i32 0, i32 4
  %43 = load i32, ptr %42, align 8
  %44 = getelementptr inbounds %"class.DepChange::ContextStream", ptr %4, i32 0, i32 5
  %45 = load i32, ptr %44, align 4
  %46 = icmp slt i32 %43, %45
  br i1 %46, label %47, label %55

47:                                               ; preds = %41
  %48 = getelementptr inbounds %"class.DepChange::ContextStream", ptr %4, i32 0, i32 3
  %49 = load ptr, ptr %48, align 8
  %50 = getelementptr inbounds %"class.DepChange::ContextStream", ptr %4, i32 0, i32 4
  %51 = load i32, ptr %50, align 8
  %52 = add nsw i32 %51, 1
  store i32 %52, ptr %50, align 8
  %53 = call noundef ptr @_ZNK5ArrayIP13InstanceKlassE2atEi(ptr noundef nonnull align 8 dereferenceable(16) %49, i32 noundef %51)
  %54 = getelementptr inbounds %"class.DepChange::ContextStream", ptr %4, i32 0, i32 2
  store ptr %53, ptr %54, align 8
  store i1 true, ptr %2, align 1
  br label %63

55:                                               ; preds = %41
  %56 = getelementptr inbounds %"class.DepChange::ContextStream", ptr %4, i32 0, i32 1
  store i32 0, ptr %56, align 8
  br label %57

57:                                               ; preds = %55, %1
  br label %62

58:                                               ; preds = %1
  br label %59

59:                                               ; preds = %58
  %60 = load ptr, ptr @g_assert_poison, align 8
  store i8 88, ptr %60, align 1
  call void @_Z28report_should_not_reach_herePKci(ptr noundef @.str, i32 noundef 2244) #9
  unreachable

61:                                               ; No predecessors!
  br label %62

62:                                               ; preds = %61, %57
  store i1 false, ptr %2, align 1
  br label %63

63:                                               ; preds = %62, %47, %27, %7
  %64 = load i1, ptr %2, align 1
  ret i1 %64
}

; Function Attrs: mustprogress nounwind uwtable
define linkonce_odr hidden void @_ZN9DepChange13ContextStreamC2ERS_(ptr noundef nonnull align 8 dereferenceable(40) %0, ptr noundef nonnull align 8 dereferenceable(8) %1) unnamed_addr #1 comdat align 2 {
  %3 = alloca ptr, align 8
  %4 = alloca ptr, align 8
  store ptr %0, ptr %3, align 8
  store ptr %1, ptr %4, align 8
  %5 = load ptr, ptr %3, align 8
  %6 = getelementptr inbounds %"class.DepChange::ContextStream", ptr %5, i32 0, i32 0
  %7 = load ptr, ptr %4, align 8
  store ptr %7, ptr %6, align 8
  call void @_ZN9DepChange13ContextStream5startEv(ptr noundef nonnull align 8 dereferenceable(40) %5)
  ret void
}

; Function Attrs: mustprogress nounwind uwtable
define hidden void @_ZN9DepChange8print_onEP12outputStream(ptr noundef nonnull align 8 dereferenceable(8) %0, ptr noundef %1) #1 align 2 {
  %3 = alloca ptr, align 8
  %4 = alloca ptr, align 8
  %5 = alloca i32, align 4
  %6 = alloca i32, align 4
  %7 = alloca %"class.DepChange::ContextStream", align 8
  %8 = alloca ptr, align 8
  store ptr %0, ptr %3, align 8
  store ptr %1, ptr %4, align 8
  %9 = load ptr, ptr %3, align 8
  store i32 0, ptr %5, align 4
  store i32 0, ptr %6, align 4
  call void @_ZN9DepChange13ContextStreamC2ERS_(ptr noundef nonnull align 8 dereferenceable(40) %7, ptr noundef nonnull align 8 dereferenceable(8) %9)
  br label %10

10:                                               ; preds = %26, %2
  %11 = call noundef zeroext i1 @_ZN9DepChange13ContextStream4nextEv(ptr noundef nonnull align 8 dereferenceable(40) %7)
  br i1 %11, label %12, label %27

12:                                               ; preds = %10
  %13 = call noundef ptr @_ZN9DepChange13ContextStream5klassEv(ptr noundef nonnull align 8 dereferenceable(40) %7)
  store ptr %13, ptr %8, align 8
  %14 = call noundef i32 @_ZN9DepChange13ContextStream11change_typeEv(ptr noundef nonnull align 8 dereferenceable(40) %7)
  switch i32 %14, label %25 [
    i32 1, label %15
    i32 2, label %19
    i32 3, label %22
  ]

15:                                               ; preds = %12
  %16 = load ptr, ptr %4, align 8
  %17 = load ptr, ptr %8, align 8
  %18 = call noundef ptr @_ZNK5Klass13external_nameEv(ptr noundef nonnull align 8 dereferenceable(196) %17)
  call void (ptr, ptr, ...) @_ZN12outputStream8print_crEPKcz(ptr noundef nonnull align 8 dereferenceable(56) %16, ptr noundef @.str.50, ptr noundef %18)
  br label %26

19:                                               ; preds = %12
  %20 = load i32, ptr %5, align 4
  %21 = add nsw i32 %20, 1
  store i32 %21, ptr %5, align 4
  br label %26

22:                                               ; preds = %12
  %23 = load i32, ptr %6, align 4
  %24 = add nsw i32 %23, 1
  store i32 %24, ptr %6, align 4
  br label %26

25:                                               ; preds = %12
  br label %26

26:                                               ; preds = %25, %22, %19, %15
  br label %10, !llvm.loop !48

27:                                               ; preds = %10
  %28 = load i32, ptr %5, align 4
  %29 = load i32, ptr %6, align 4
  %30 = add nsw i32 %28, %29
  %31 = icmp ne i32 %30, 0
  br i1 %31, label %32, label %36

32:                                               ; preds = %27
  %33 = load ptr, ptr %4, align 8
  %34 = load i32, ptr %5, align 4
  %35 = load i32, ptr %6, align 4
  call void (ptr, ptr, ...) @_ZN12outputStream8print_crEPKcz(ptr noundef nonnull align 8 dereferenceable(56) %33, ptr noundef @.str.51, i32 noundef %34, i32 noundef %35)
  br label %36

36:                                               ; preds = %32, %27
  ret void
}