; Function Attrs: mustprogress nounwind uwtable
define hidden void @_ZN9DepChange8print_onEP12outputStream(ptr noundef nonnull align 8 dereferenceable(8) %0, ptr noundef %1) local_unnamed_addr #0 align 2 {
  %3 = load ptr, ptr %0, align 8
  %4 = load ptr, ptr %3, align 8
  %5 = tail call noundef zeroext i1 %4(ptr noundef nonnull align 8 dereferenceable(8) %0) #18
  br i1 %5, label %_ZN9DepChange13ContextStreamC2ERS_.exit, label %select.unfold

_ZN9DepChange13ContextStreamC2ERS_.exit:          ; preds = %2
  %6 = getelementptr inbounds i8, ptr %0, i64 8
  %7 = load ptr, ptr %6, align 8
  %8 = icmp eq ptr %7, null
  br i1 %8, label %select.unfold, label %.preheader.preheader

select.unfold:                                    ; preds = %2, %_ZN9DepChange13ContextStreamC2ERS_.exit
  br label %.preheader.preheader

.preheader.preheader:                             ; preds = %select.unfold, %_ZN9DepChange13ContextStreamC2ERS_.exit
  %.sroa.9.0.ph = phi ptr [ %7, %_ZN9DepChange13ContextStreamC2ERS_.exit ], [ null, %select.unfold ]
  %.sroa.2.0.ph = phi i32 [ 4, %_ZN9DepChange13ContextStreamC2ERS_.exit ], [ 0, %select.unfold ]
  br label %.preheader.outer.outer

.preheader.outer.outer:                           ; preds = %25, %.preheader.preheader
  %.sroa.19.0.ph.ph = phi i32 [ %26, %25 ], [ 0, %.preheader.preheader ]
  %.sroa.22.0.ph.ph = phi i32 [ %.sroa.22.1, %25 ], [ 0, %.preheader.preheader ]
  %.sroa.9.0.ph61.ph = phi ptr [ %30, %25 ], [ %.sroa.9.0.ph, %.preheader.preheader ]
  %.sroa.2.0.ph62.ph = phi i32 [ 3, %25 ], [ %.sroa.2.0.ph, %.preheader.preheader ]
  %.sroa.15.0.ph.ph = phi ptr [ %.sroa.15.0.ph, %25 ], [ null, %.preheader.preheader ]
  %.09.ph.ph = phi i32 [ %31, %25 ], [ 0, %.preheader.preheader ]
  %.0.ph.ph = phi i32 [ %.0, %25 ], [ 0, %.preheader.preheader ]
  br label %.preheader.outer

.preheader.outer:                                 ; preds = %.preheader.outer.outer, %19
  %.sroa.19.0.ph = phi i32 [ 0, %19 ], [ %.sroa.19.0.ph.ph, %.preheader.outer.outer ]
  %.sroa.9.0.ph61 = phi ptr [ %.sroa.9.0, %19 ], [ %.sroa.9.0.ph61.ph, %.preheader.outer.outer ]
  %.sroa.2.0.ph62 = phi i32 [ 1, %19 ], [ %.sroa.2.0.ph62.ph, %.preheader.outer.outer ]
  %.sroa.15.0.ph = phi ptr [ %21, %19 ], [ %.sroa.15.0.ph.ph, %.preheader.outer.outer ]
  %.0.ph = phi i32 [ %.0, %19 ], [ %.0.ph.ph, %.preheader.outer.outer ]
  br label %.preheader

.preheader:                                       ; preds = %.preheader.outer, %23
  %.sroa.9.0 = phi ptr [ %13, %23 ], [ %.sroa.9.0.ph61, %.preheader.outer ]
  %.sroa.2.0 = phi i32 [ 2, %23 ], [ %.sroa.2.0.ph62, %.preheader.outer ]
  %.0 = phi i32 [ %24, %23 ], [ %.0.ph, %.preheader.outer ]
  switch i32 %.sroa.2.0, label %default.unreachable56 [
    i32 4, label %19
    i32 1, label %9
    i32 2, label %9
    i32 3, label %._crit_edge.i
    i32 0, label %_ZN9DepChange13ContextStream4nextEv.exit
  ]

9:                                                ; preds = %.preheader, %.preheader
  %10 = load ptr, ptr %.sroa.9.0, align 8
  %11 = getelementptr inbounds i8, ptr %10, i64 120
  %12 = load ptr, ptr %11, align 8
  %13 = tail call noundef ptr %12(ptr noundef nonnull align 8 dereferenceable(464) %.sroa.9.0) #18
  %.not.i = icmp eq ptr %13, null
  br i1 %.not.i, label %14, label %23

14:                                               ; preds = %9
  %15 = icmp eq ptr %.sroa.15.0.ph, null
  br i1 %15, label %._crit_edge.i, label %16

16:                                               ; preds = %14
  %17 = load i32, ptr %.sroa.15.0.ph, align 8
  br label %._crit_edge.i

._crit_edge.i:                                    ; preds = %.preheader, %14, %16
  %.sroa.22.1 = phi i32 [ %17, %16 ], [ 0, %14 ], [ %.sroa.22.0.ph.ph, %.preheader ]
  %18 = icmp slt i32 %.sroa.19.0.ph, %.sroa.22.1
  br i1 %18, label %25, label %_ZN9DepChange13ContextStream4nextEv.exit

default.unreachable56:                            ; preds = %.preheader
  unreachable

19:                                               ; preds = %.preheader
  %20 = getelementptr inbounds i8, ptr %.sroa.9.0, i64 424
  %21 = load ptr, ptr %20, align 8
  %22 = tail call noundef ptr @_ZNK5Klass13external_nameEv(ptr noundef nonnull align 8 dereferenceable(196) %.sroa.9.0) #18
  tail call void (ptr, ptr, ...) @_ZN12outputStream8print_crEPKcz(ptr noundef nonnull align 8 dereferenceable(56) %1, ptr noundef nonnull @.str.50, ptr noundef %22) #18
  br label %.preheader.outer, !llvm.loop !56

23:                                               ; preds = %9
  %24 = add nsw i32 %.0, 1
  br label %.preheader, !llvm.loop !56

25:                                               ; preds = %._crit_edge.i
  %26 = add nsw i32 %.sroa.19.0.ph, 1
  %27 = getelementptr inbounds i8, ptr %.sroa.15.0.ph, i64 8
  %28 = sext i32 %.sroa.19.0.ph to i64
  %29 = getelementptr inbounds ptr, ptr %27, i64 %28
  %30 = load ptr, ptr %29, align 8
  %31 = add nuw nsw i32 %.09.ph.ph, 1
  br label %.preheader.outer.outer, !llvm.loop !56

_ZN9DepChange13ContextStream4nextEv.exit:         ; preds = %._crit_edge.i, %.preheader
  %32 = sub nsw i32 0, %.09.ph.ph
  %.not = icmp eq i32 %.0, %32
  br i1 %.not, label %34, label %33

33:                                               ; preds = %_ZN9DepChange13ContextStream4nextEv.exit
  tail call void (ptr, ptr, ...) @_ZN12outputStream8print_crEPKcz(ptr noundef nonnull align 8 dereferenceable(56) %1, ptr noundef nonnull @.str.51, i32 noundef %.0, i32 noundef %.09.ph.ph) #18
  br label %34

34:                                               ; preds = %33, %_ZN9DepChange13ContextStream4nextEv.exit
  ret void
}